target datalayout = "e-m:e-p270:32:32-p271:32:32-p272:64:64-i64:64-i128:128-f80:128-n8:16:32:64-S128"
target triple = "x86_64-pc-linux-gnu"

%struct._zend_executor_globals = type { %struct._zval_struct, %struct._zval_struct, [32 x ptr], ptr, ptr, %struct._zend_array, %struct._zend_array, ptr, i32, i8, %struct._zval_struct, i32, ptr, ptr, ptr, ptr, ptr, ptr, i64, ptr, ptr, i32, ptr, i32, i64, i32, i32, i32, i8, i8, %struct.zend_atomic_bool_s, %struct.zend_atomic_bool_s, ptr, i64, ptr, ptr, %struct._zend_array, %struct._zend_array, i32, i8, %struct._zval_struct, %struct._zval_struct, %struct._zend_stack, %struct._zend_stack, %struct._zend_stack, ptr, i32, i32, i64, ptr, ptr, ptr, %struct._zend_objects_store, %struct._zend_lazy_objects_store, ptr, ptr, ptr, [3 x %struct._zend_op], ptr, i8, i8, i64, i32, i32, ptr, [16 x %struct._HashTableIterator], ptr, %union._zend_function, %struct._zend_op, %struct._zend_array, i64, %struct.zend_get_gc_buffer, ptr, ptr, ptr, i64, i8, i32, ptr, ptr, i64, %struct._zend_call_stack, i64, i64, %struct._zend_strtod_state, [6 x ptr] }
%struct.zend_atomic_bool_s = type { i8 }
%struct._zval_struct = type { %union._zend_value, %union.anon, %union.anon.2 }
%union._zend_value = type { i64 }
%union.anon = type { i32 }
%union.anon.2 = type { i32 }
%struct._zend_stack = type { i32, i32, i32, ptr }
%struct._zend_objects_store = type { ptr, i32, i32, i32 }
%struct._zend_lazy_objects_store = type { %struct._zend_array }
%struct._HashTableIterator = type { ptr, i32, i32 }
%union._zend_function = type { %struct._zend_op_array }
%struct._zend_op_array = type { i8, [3 x i8], i32, ptr, ptr, ptr, i32, i32, ptr, ptr, ptr, ptr, i32, ptr, i32, i32, i32, ptr, ptr, ptr, ptr, ptr, i32, i32, ptr, ptr, ptr, i32, i32, i32, i32, ptr, ptr, [6 x ptr] }
%struct._zend_op = type { ptr, %union._znode_op, %union._znode_op, %union._znode_op, i32, i32, i8, i8, i8, i8 }
%union._znode_op = type { i32 }
%struct._zend_array = type { %struct._zend_refcounted_h, %union.anon.4, i32, %union.anon.6, i32, i32, i32, i32, i64, ptr }
%struct._zend_refcounted_h = type { i32, %union.anon.3 }
%union.anon.3 = type { i32 }
%union.anon.4 = type { i32 }
%union.anon.6 = type { ptr }
%struct.zend_get_gc_buffer = type { ptr, ptr, ptr }
%struct._zend_call_stack = type { ptr, i64 }
%struct._zend_strtod_state = type { [8 x ptr], ptr, ptr }
%struct._sapi_globals_struct = type { ptr, %struct.sapi_request_info, %struct.sapi_headers_struct, i64, i8, i8, %struct.stat, ptr, ptr, ptr, i64, i32, i8, double, %struct._zend_array, %struct._zval_struct, %struct._zend_fcall_info_cache, %struct.sapi_request_parse_body_context }
%struct.sapi_request_info = type { ptr, ptr, ptr, i64, ptr, ptr, ptr, ptr, i8, i8, i8, ptr, ptr, ptr, ptr, ptr, ptr, ptr, i32, i32, ptr, i32 }
%struct.sapi_headers_struct = type { %struct._zend_llist, i32, i8, ptr, ptr }
%struct._zend_llist = type { ptr, ptr, i64, i64, ptr, i8, ptr }
%struct.stat = type { i64, i64, i64, i32, i32, i32, i32, i64, i64, i64, i64, %struct.timespec, %struct.timespec, %struct.timespec, [3 x i64] }
%struct.timespec = type { i64, i64 }
%struct._zend_fcall_info_cache = type { ptr, ptr, ptr, ptr, ptr }
%struct.sapi_request_parse_body_context = type { i8, [5 x %struct.anon.8] }
%struct.anon.8 = type { i8, i64 }
%struct._zend_execute_data = type { ptr, ptr, ptr, ptr, %struct._zval_struct, ptr, ptr, ptr, ptr }
%struct.php_cli_server_client = type { ptr, i32, ptr, i32, ptr, %struct.php_http_parser, i8, ptr, ptr, i32, i64, %struct.php_cli_server_request, i8, %struct.php_cli_server_content_sender, i32 }
%struct.php_http_parser = type { i8, i8, i8, i8, i32, i64, i16, i16, i16, i8, i8, ptr }
%struct.php_cli_server_request = type { i32, i32, ptr, ptr, i64, ptr, i64, ptr, i64, ptr, i64, %struct._zend_array, %struct._zend_array, ptr, i64, ptr, i64, %struct.stat }
%struct.php_cli_server_content_sender = type { %struct.php_cli_server_buffer }
%struct.php_cli_server_buffer = type { ptr, ptr }

@executor_globals = external global %struct._zend_executor_globals, align 8
@sapi_globals = external global %struct._sapi_globals_struct, align 8

; Function Attrs: nounwind uwtable
define hidden void @zif_apache_request_headers(ptr noundef %0, ptr noundef %1) #0 {
  %3 = alloca ptr, align 8
  %4 = alloca ptr, align 8
  %5 = alloca ptr, align 8
  %6 = alloca i32, align 4
  %7 = alloca ptr, align 8
  %8 = alloca ptr, align 8
  store ptr %0, ptr %3, align 8, !tbaa !4
  store ptr %1, ptr %4, align 8, !tbaa !9
  call void @llvm.lifetime.start.p0(i64 8, ptr %5) #20
  %9 = load ptr, ptr %3, align 8, !tbaa !4
  %10 = getelementptr inbounds nuw %struct._zend_execute_data, ptr %9, i32 0, i32 4
  %11 = getelementptr inbounds nuw %struct._zval_struct, ptr %10, i32 0, i32 2
  %12 = load i32, ptr %11, align 4, !tbaa !11
  %13 = icmp eq i32 %12, 0
  %14 = xor i1 %13, true
  %15 = xor i1 %14, true
  %16 = zext i1 %15 to i32
  %17 = sext i32 %16 to i64
  %18 = call i64 @llvm.expect.i64(i64 %17, i64 1)
  %19 = icmp ne i64 %18, 0
  br i1 %19, label %20, label %21

20:                                               ; preds = %2
  br label %22

21:                                               ; preds = %2
  call void @zend_wrong_parameters_none_error()
  br label %22

22:                                               ; preds = %21, %20
  %23 = phi i32 [ 0, %20 ], [ -1, %21 ]
  %24 = icmp eq i32 %23, -1
  br i1 %24, label %25, label %31

25:                                               ; preds = %22
  br label %26

26:                                               ; preds = %25
  %27 = load ptr, ptr getelementptr inbounds nuw (%struct._zend_executor_globals, ptr @executor_globals, i32 0, i32 54), align 8, !tbaa !12
  %28 = icmp ne ptr %27, null
  call void @llvm.assume(i1 %28)
  store i32 1, ptr %6, align 4
  br label %49

29:                                               ; No predecessors!
  br label %30

30:                                               ; preds = %29
  br label %31

31:                                               ; preds = %30, %22
  %32 = load ptr, ptr @sapi_globals, align 8, !tbaa !45
  store ptr %32, ptr %5, align 8, !tbaa !60
  br label %33

33:                                               ; preds = %31
  br label %34

34:                                               ; preds = %33
  call void @llvm.lifetime.start.p0(i64 8, ptr %7) #20
  %35 = load ptr, ptr %5, align 8, !tbaa !60
  %36 = getelementptr inbounds nuw %struct.php_cli_server_client, ptr %35, i32 0, i32 11
  %37 = getelementptr inbounds nuw %struct.php_cli_server_request, ptr %36, i32 0, i32 12
  %38 = call ptr @zend_array_dup(ptr noundef %37)
  store ptr %38, ptr %7, align 8, !tbaa !62
  call void @llvm.lifetime.start.p0(i64 8, ptr %8) #20
  %39 = load ptr, ptr %4, align 8, !tbaa !9
  store ptr %39, ptr %8, align 8, !tbaa !9
  %40 = load ptr, ptr %7, align 8, !tbaa !62
  %41 = load ptr, ptr %8, align 8, !tbaa !9
  %42 = getelementptr inbounds nuw %struct._zval_struct, ptr %41, i32 0, i32 0
  store ptr %40, ptr %42, align 8, !tbaa !11
  %43 = load ptr, ptr %8, align 8, !tbaa !9
  %44 = getelementptr inbounds nuw %struct._zval_struct, ptr %43, i32 0, i32 1
  store i32 775, ptr %44, align 8, !tbaa !11
  call void @llvm.lifetime.end.p0(i64 8, ptr %8) #20
  call void @llvm.lifetime.end.p0(i64 8, ptr %7) #20
  br label %45

45:                                               ; preds = %34
  br label %46

46:                                               ; preds = %45
  store i32 1, ptr %6, align 4
  br label %49

47:                                               ; No predecessors!
  br label %48

48:                                               ; preds = %47
  store i32 0, ptr %6, align 4
  br label %49

49:                                               ; preds = %48, %46, %26
  call void @llvm.lifetime.end.p0(i64 8, ptr %5) #20
  %50 = load i32, ptr %6, align 4
  switch i32 %50, label %52 [
    i32 0, label %51
    i32 1, label %51
  ]

51:                                               ; preds = %49, %49
  ret void

52:                                               ; preds = %49
  unreachable
}