; Function Attrs: nounwind uwtable
define hidden void @zif_apache_request_headers(ptr noundef readonly captures(none) %0, ptr noundef writeonly captures(none) %1) #0 {
  %3 = getelementptr inbounds nuw i8, ptr %0, i64 44
  %4 = load i32, ptr %3, align 4, !tbaa !4
  %.not = icmp eq i32 %4, 0
  br i1 %.not, label %.critedge, label %5, !prof !7

5:                                                ; preds = %2
  tail call void @zend_wrong_parameters_none_error() #29
  %6 = load ptr, ptr getelementptr inbounds nuw (i8, ptr @executor_globals, i64 960), align 8, !tbaa !8
  %7 = icmp ne ptr %6, null
  tail call void @llvm.assume(i1 %7)
  br label %12

.critedge:                                        ; preds = %2
  %8 = load ptr, ptr @sapi_globals, align 8, !tbaa !44
  %9 = getelementptr inbounds nuw i8, ptr %8, i64 248
  %10 = tail call ptr @zend_array_dup(ptr noundef nonnull %9) #29
  store ptr %10, ptr %1, align 8, !tbaa !4
  %11 = getelementptr inbounds nuw i8, ptr %1, i64 8
  store i32 775, ptr %11, align 8, !tbaa !4
  br label %12

12:                                               ; preds = %.critedge, %5
  ret void
}